target datalayout = "e-m:e-p270:32:32-p271:32:32-p272:64:64-i64:64-i128:128-f80:128-n8:16:32:64-S128"
target triple = "x86_64-unknown-linux-gnu"

%"class.rocksdb::Slice" = type { ptr, i64 }
%"class.rocksdb::InternalKey" = type { %"class.std::__cxx11::basic_string" }
%"class.std::__cxx11::basic_string" = type { %"struct.std::__cxx11::basic_string<char>::_Alloc_hider", i64, %union.anon }
%"struct.std::__cxx11::basic_string<char>::_Alloc_hider" = type { ptr }
%union.anon = type { i64, [8 x i8] }

@_ZN7rocksdbL23kRangeTombstoneSentinelE = internal global i64 0, align 8

; Function Attrs: mustprogress nounwind uwtable
define linkonce_odr noundef i64 @_ZN7rocksdb13DecodeFixed64EPKc(ptr noundef %ptr) #1 comdat {
entry:
  %ptr.addr = alloca ptr, align 8
  %result = alloca i64, align 8
  store ptr %ptr, ptr %ptr.addr, align 8
  %0 = load ptr, ptr %ptr.addr, align 8
  call void @llvm.memcpy.p0.p0.i64(ptr align 8 %result, ptr align 1 %0, i64 8, i1 false)
  %1 = load i64, ptr %result, align 8
  ret i64 %1
}

; Function Attrs: mustprogress nounwind uwtable
define linkonce_odr void @_ZN7rocksdb5SliceC2EPKcm(ptr noundef nonnull align 8 dereferenceable(16) %this, ptr noundef %d, i64 noundef %n) unnamed_addr #1 comdat align 2 {
entry:
  %this.addr = alloca ptr, align 8
  %d.addr = alloca ptr, align 8
  %n.addr = alloca i64, align 8
  store ptr %this, ptr %this.addr, align 8
  store ptr %d, ptr %d.addr, align 8
  store i64 %n, ptr %n.addr, align 8
  %this1 = load ptr, ptr %this.addr, align 8
  %data_ = getelementptr inbounds %"class.rocksdb::Slice", ptr %this1, i32 0, i32 0
  %0 = load ptr, ptr %d.addr, align 8
  store ptr %0, ptr %data_, align 8
  %size_ = getelementptr inbounds %"class.rocksdb::Slice", ptr %this1, i32 0, i32 1
  %1 = load i64, ptr %n.addr, align 8
  store i64 %1, ptr %size_, align 8
  ret void
}

; Function Attrs: mustprogress nounwind uwtable
define linkonce_odr noundef i64 @_ZNK7rocksdb5Slice4sizeEv(ptr noundef nonnull align 8 dereferenceable(16) %this) #1 comdat align 2 {
entry:
  %this.addr = alloca ptr, align 8
  store ptr %this, ptr %this.addr, align 8
  %this1 = load ptr, ptr %this.addr, align 8
  %size_ = getelementptr inbounds %"class.rocksdb::Slice", ptr %this1, i32 0, i32 1
  %0 = load i64, ptr %size_, align 8
  ret i64 %0
}

; Function Attrs: mustprogress nounwind uwtable
define linkonce_odr noundef ptr @_ZNK7rocksdb5Slice4dataEv(ptr noundef nonnull align 8 dereferenceable(16) %this) #1 comdat align 2 {
entry:
  %this.addr = alloca ptr, align 8
  store ptr %this, ptr %this.addr, align 8
  %this1 = load ptr, ptr %this.addr, align 8
  %data_ = getelementptr inbounds %"class.rocksdb::Slice", ptr %this1, i32 0, i32 0
  %0 = load ptr, ptr %data_, align 8
  ret ptr %0
}

; Function Attrs: mustprogress nounwind uwtable
define linkonce_odr noundef i64 @_ZN7rocksdb24ExtractInternalKeyFooterERKNS_5SliceE(ptr noundef nonnull align 8 dereferenceable(16) %internal_key) #1 comdat {
entry:
  %internal_key.addr = alloca ptr, align 8
  %n = alloca i64, align 8
  store ptr %internal_key, ptr %internal_key.addr, align 8
  %0 = load ptr, ptr %internal_key.addr, align 8
  %call = call noundef i64 @_ZNK7rocksdb5Slice4sizeEv(ptr noundef nonnull align 8 dereferenceable(16) %0)
  store i64 %call, ptr %n, align 8
  %1 = load ptr, ptr %internal_key.addr, align 8
  %call1 = call noundef ptr @_ZNK7rocksdb5Slice4dataEv(ptr noundef nonnull align 8 dereferenceable(16) %1)
  %2 = load i64, ptr %n, align 8
  %add.ptr = getelementptr inbounds i8, ptr %call1, i64 %2
  %add.ptr2 = getelementptr inbounds i8, ptr %add.ptr, i64 -8
  %call3 = call noundef i64 @_ZN7rocksdb13DecodeFixed64EPKc(ptr noundef %add.ptr2)
  ret i64 %call3
}

; Function Attrs: mustprogress uwtable
define linkonce_odr noundef i32 @_ZNK7rocksdb10Comparator23CompareWithoutTimestampERKNS_5SliceES3_(ptr noundef nonnull align 8 dereferenceable(48) %this, ptr noundef nonnull align 8 dereferenceable(16) %a, ptr noundef nonnull align 8 dereferenceable(16) %b) #0 comdat align 2 {
entry:
  %this.addr = alloca ptr, align 8
  %a.addr = alloca ptr, align 8
  %b.addr = alloca ptr, align 8
  store ptr %this, ptr %this.addr, align 8
  store ptr %a, ptr %a.addr, align 8
  store ptr %b, ptr %b.addr, align 8
  %this1 = load ptr, ptr %this.addr, align 8
  %0 = load ptr, ptr %a.addr, align 8
  %1 = load ptr, ptr %b.addr, align 8
  %vtable = load ptr, ptr %this1, align 8
  %vfn = getelementptr inbounds ptr, ptr %vtable, i64 26
  %2 = load ptr, ptr %vfn, align 8
  %call = call noundef i32 %2(ptr noundef nonnull align 8 dereferenceable(48) %this1, ptr noundef nonnull align 8 dereferenceable(16) %0, i1 noundef zeroext true, ptr noundef nonnull align 8 dereferenceable(16) %1, i1 noundef zeroext true)
  ret i32 %call
}

; Function Attrs: mustprogress uwtable
define linkonce_odr { ptr, i64 } @_ZN7rocksdb14ExtractUserKeyERKNS_5SliceE(ptr noundef nonnull align 8 dereferenceable(16) %internal_key) #0 comdat {
entry:
  %retval = alloca %"class.rocksdb::Slice", align 8
  %internal_key.addr = alloca ptr, align 8
  store ptr %internal_key, ptr %internal_key.addr, align 8
  %0 = load ptr, ptr %internal_key.addr, align 8
  %call = call noundef ptr @_ZNK7rocksdb5Slice4dataEv(ptr noundef nonnull align 8 dereferenceable(16) %0)
  %1 = load ptr, ptr %internal_key.addr, align 8
  %call1 = call noundef i64 @_ZNK7rocksdb5Slice4sizeEv(ptr noundef nonnull align 8 dereferenceable(16) %1)
  %sub = sub i64 %call1, 8
  call void @_ZN7rocksdb5SliceC2EPKcm(ptr noundef nonnull align 8 dereferenceable(16) %retval, ptr noundef %call, i64 noundef %sub)
  %2 = load { ptr, i64 }, ptr %retval, align 8
  ret { ptr, i64 } %2
}

; Function Attrs: mustprogress nounwind uwtable
define linkonce_odr void @_ZN7rocksdb5SliceC2ERKNSt7__cxx1112basic_stringIcSt11char_traitsIcESaIcEEE(ptr noundef nonnull align 8 dereferenceable(16) %this, ptr noundef nonnull align 8 dereferenceable(32) %s) unnamed_addr #1 comdat align 2 {
entry:
  %this.addr = alloca ptr, align 8
  %s.addr = alloca ptr, align 8
  store ptr %this, ptr %this.addr, align 8
  store ptr %s, ptr %s.addr, align 8
  %this1 = load ptr, ptr %this.addr, align 8
  %data_ = getelementptr inbounds %"class.rocksdb::Slice", ptr %this1, i32 0, i32 0
  %0 = load ptr, ptr %s.addr, align 8
  %call = call noundef ptr @_ZNKSt7__cxx1112basic_stringIcSt11char_traitsIcESaIcEE4dataEv(ptr noundef nonnull align 8 dereferenceable(32) %0) #3
  store ptr %call, ptr %data_, align 8
  %size_ = getelementptr inbounds %"class.rocksdb::Slice", ptr %this1, i32 0, i32 1
  %1 = load ptr, ptr %s.addr, align 8
  %call2 = call noundef i64 @_ZNKSt7__cxx1112basic_stringIcSt11char_traitsIcESaIcEE4sizeEv(ptr noundef nonnull align 8 dereferenceable(32) %1) #3
  store i64 %call2, ptr %size_, align 8
  ret void
}

; Function Attrs: mustprogress uwtable
define noundef i32 @_ZN7rocksdb17sstableKeyCompareEPKNS_10ComparatorERKNS_5SliceES5_(ptr noundef %uc, ptr noundef nonnull align 8 dereferenceable(16) %a, ptr noundef nonnull align 8 dereferenceable(16) %b) #0 {
entry:
  %retval = alloca i32, align 4
  %uc.addr = alloca ptr, align 8
  %a.addr = alloca ptr, align 8
  %b.addr = alloca ptr, align 8
  %c = alloca i32, align 4
  %ref.tmp = alloca %"class.rocksdb::Slice", align 8
  %ref.tmp1 = alloca %"class.rocksdb::Slice", align 8
  %a_footer = alloca i64, align 8
  %b_footer = alloca i64, align 8
  store ptr %uc, ptr %uc.addr, align 8
  store ptr %a, ptr %a.addr, align 8
  store ptr %b, ptr %b.addr, align 8
  %0 = load ptr, ptr %uc.addr, align 8
  %1 = load ptr, ptr %a.addr, align 8
  %call = call { ptr, i64 } @_ZN7rocksdb14ExtractUserKeyERKNS_5SliceE(ptr noundef nonnull align 8 dereferenceable(16) %1)
  %2 = getelementptr inbounds { ptr, i64 }, ptr %ref.tmp, i32 0, i32 0
  %3 = extractvalue { ptr, i64 } %call, 0
  store ptr %3, ptr %2, align 8
  %4 = getelementptr inbounds { ptr, i64 }, ptr %ref.tmp, i32 0, i32 1
  %5 = extractvalue { ptr, i64 } %call, 1
  store i64 %5, ptr %4, align 8
  %6 = load ptr, ptr %b.addr, align 8
  %call2 = call { ptr, i64 } @_ZN7rocksdb14ExtractUserKeyERKNS_5SliceE(ptr noundef nonnull align 8 dereferenceable(16) %6)
  %7 = getelementptr inbounds { ptr, i64 }, ptr %ref.tmp1, i32 0, i32 0
  %8 = extractvalue { ptr, i64 } %call2, 0
  store ptr %8, ptr %7, align 8
  %9 = getelementptr inbounds { ptr, i64 }, ptr %ref.tmp1, i32 0, i32 1
  %10 = extractvalue { ptr, i64 } %call2, 1
  store i64 %10, ptr %9, align 8
  %call3 = call noundef i32 @_ZNK7rocksdb10Comparator23CompareWithoutTimestampERKNS_5SliceES3_(ptr noundef nonnull align 8 dereferenceable(48) %0, ptr noundef nonnull align 8 dereferenceable(16) %ref.tmp, ptr noundef nonnull align 8 dereferenceable(16) %ref.tmp1)
  store i32 %call3, ptr %c, align 4
  %11 = load i32, ptr %c, align 4
  %cmp = icmp ne i32 %11, 0
  br i1 %cmp, label %if.then, label %if.end

if.then:                                          ; preds = %entry
  %12 = load i32, ptr %c, align 4
  store i32 %12, ptr %retval, align 4
  br label %return

if.end:                                           ; preds = %entry
  %13 = load ptr, ptr %a.addr, align 8
  %call4 = call noundef i64 @_ZN7rocksdb24ExtractInternalKeyFooterERKNS_5SliceE(ptr noundef nonnull align 8 dereferenceable(16) %13)
  store i64 %call4, ptr %a_footer, align 8
  %14 = load ptr, ptr %b.addr, align 8
  %call5 = call noundef i64 @_ZN7rocksdb24ExtractInternalKeyFooterERKNS_5SliceE(ptr noundef nonnull align 8 dereferenceable(16) %14)
  store i64 %call5, ptr %b_footer, align 8
  %15 = load i64, ptr %a_footer, align 8
  %16 = load i64, ptr @_ZN7rocksdbL23kRangeTombstoneSentinelE, align 8
  %cmp6 = icmp eq i64 %15, %16
  br i1 %cmp6, label %if.then7, label %if.else

if.then7:                                         ; preds = %if.end
  %17 = load i64, ptr %b_footer, align 8
  %18 = load i64, ptr @_ZN7rocksdbL23kRangeTombstoneSentinelE, align 8
  %cmp8 = icmp ne i64 %17, %18
  br i1 %cmp8, label %if.then9, label %if.end10

if.then9:                                         ; preds = %if.then7
  store i32 -1, ptr %retval, align 4
  br label %return

if.end10:                                         ; preds = %if.then7
  br label %if.end14

if.else:                                          ; preds = %if.end
  %19 = load i64, ptr %b_footer, align 8
  %20 = load i64, ptr @_ZN7rocksdbL23kRangeTombstoneSentinelE, align 8
  %cmp11 = icmp eq i64 %19, %20
  br i1 %cmp11, label %if.then12, label %if.end13

if.then12:                                        ; preds = %if.else
  store i32 1, ptr %retval, align 4
  br label %return

if.end13:                                         ; preds = %if.else
  br label %if.end14

if.end14:                                         ; preds = %if.end13, %if.end10
  store i32 0, ptr %retval, align 4
  br label %return

return:                                           ; preds = %if.end14, %if.then12, %if.then9, %if.then
  %21 = load i32, ptr %retval, align 4
  ret i32 %21
}

; Function Attrs: mustprogress uwtable
define linkonce_odr { ptr, i64 } @_ZNK7rocksdb11InternalKey6EncodeEv(ptr noundef nonnull align 8 dereferenceable(32) %this) #0 comdat align 2 {
entry:
  %retval = alloca %"class.rocksdb::Slice", align 8
  %this.addr = alloca ptr, align 8
  store ptr %this, ptr %this.addr, align 8
  %this1 = load ptr, ptr %this.addr, align 8
  %rep_ = getelementptr inbounds %"class.rocksdb::InternalKey", ptr %this1, i32 0, i32 0
  call void @_ZN7rocksdb5SliceC2ERKNSt7__cxx1112basic_stringIcSt11char_traitsIcESaIcEEE(ptr noundef nonnull align 8 dereferenceable(16) %retval, ptr noundef nonnull align 8 dereferenceable(32) %rep_)
  %0 = load { ptr, i64 }, ptr %retval, align 8
  ret { ptr, i64 } %0
}

; Function Attrs: mustprogress uwtable
define linkonce_odr noundef i32 @_ZN7rocksdb17sstableKeyCompareEPKNS_10ComparatorERKNS_11InternalKeyES5_(ptr noundef %user_cmp, ptr noundef nonnull align 8 dereferenceable(32) %a, ptr noundef nonnull align 8 dereferenceable(32) %b) #0 comdat {
entry:
  %user_cmp.addr = alloca ptr, align 8
  %a.addr = alloca ptr, align 8
  %b.addr = alloca ptr, align 8
  %ref.tmp = alloca %"class.rocksdb::Slice", align 8
  %ref.tmp1 = alloca %"class.rocksdb::Slice", align 8
  store ptr %user_cmp, ptr %user_cmp.addr, align 8
  store ptr %a, ptr %a.addr, align 8
  store ptr %b, ptr %b.addr, align 8
  %0 = load ptr, ptr %user_cmp.addr, align 8
  %1 = load ptr, ptr %a.addr, align 8
  %call = call { ptr, i64 } @_ZNK7rocksdb11InternalKey6EncodeEv(ptr noundef nonnull align 8 dereferenceable(32) %1)
  %2 = getelementptr inbounds { ptr, i64 }, ptr %ref.tmp, i32 0, i32 0
  %3 = extractvalue { ptr, i64 } %call, 0
  store ptr %3, ptr %2, align 8
  %4 = getelementptr inbounds { ptr, i64 }, ptr %ref.tmp, i32 0, i32 1
  %5 = extractvalue { ptr, i64 } %call, 1
  store i64 %5, ptr %4, align 8
  %6 = load ptr, ptr %b.addr, align 8
  %call2 = call { ptr, i64 } @_ZNK7rocksdb11InternalKey6EncodeEv(ptr noundef nonnull align 8 dereferenceable(32) %6)
  %7 = getelementptr inbounds { ptr, i64 }, ptr %ref.tmp1, i32 0, i32 0
  %8 = extractvalue { ptr, i64 } %call2, 0
  store ptr %8, ptr %7, align 8
  %9 = getelementptr inbounds { ptr, i64 }, ptr %ref.tmp1, i32 0, i32 1
  %10 = extractvalue { ptr, i64 } %call2, 1
  store i64 %10, ptr %9, align 8
  %call3 = call noundef i32 @_ZN7rocksdb17sstableKeyCompareEPKNS_10ComparatorERKNS_5SliceES5_(ptr noundef %0, ptr noundef nonnull align 8 dereferenceable(16) %ref.tmp, ptr noundef nonnull align 8 dereferenceable(16) %ref.tmp1)
  ret i32 %call3
}

; Function Attrs: mustprogress uwtable
define noundef i32 @_ZN7rocksdb17sstableKeyCompareEPKNS_10ComparatorERKNS_11InternalKeyEPS4_(ptr noundef %user_cmp, ptr noundef nonnull align 8 dereferenceable(32) %a, ptr noundef %b) #0 {
entry:
  %retval = alloca i32, align 4
  %user_cmp.addr = alloca ptr, align 8
  %a.addr = alloca ptr, align 8
  %b.addr = alloca ptr, align 8
  store ptr %user_cmp, ptr %user_cmp.addr, align 8
  store ptr %a, ptr %a.addr, align 8
  store ptr %b, ptr %b.addr, align 8
  %0 = load ptr, ptr %b.addr, align 8
  %cmp = icmp eq ptr %0, null
  br i1 %cmp, label %if.then, label %if.end

if.then:                                          ; preds = %entry
  store i32 -1, ptr %retval, align 4
  br label %return

if.end:                                           ; preds = %entry
  %1 = load ptr, ptr %user_cmp.addr, align 8
  %2 = load ptr, ptr %a.addr, align 8
  %3 = load ptr, ptr %b.addr, align 8
  %call = call noundef i32 @_ZN7rocksdb17sstableKeyCompareEPKNS_10ComparatorERKNS_11InternalKeyES5_(ptr noundef %1, ptr noundef nonnull align 8 dereferenceable(32) %2, ptr noundef nonnull align 8 dereferenceable(32) %3)
  store i32 %call, ptr %retval, align 4
  br label %return

return:                                           ; preds = %if.end, %if.then
  %4 = load i32, ptr %retval, align 4
  ret i32 %4
}