; Function Attrs: mustprogress uwtable
define noundef i32 @_ZN7rocksdb17sstableKeyCompareEPKNS_10ComparatorERKNS_11InternalKeyEPS4_(ptr noundef %user_cmp, ptr noundef nonnull align 8 dereferenceable(32) %a, ptr noundef %b) local_unnamed_addr #3 {
entry:
  %ref.tmp.i.i = alloca %"class.rocksdb::Slice", align 8
  %ref.tmp1.i.i = alloca %"class.rocksdb::Slice", align 8
  %cmp = icmp eq ptr %b, null
  br i1 %cmp, label %return, label %if.end

if.end:                                           ; preds = %entry
  %call.i.i.i = tail call noundef ptr @_ZNKSt7__cxx1112basic_stringIcSt11char_traitsIcESaIcEE4dataEv(ptr noundef nonnull align 8 dereferenceable(32) %a) #26
  %call2.i.i.i = tail call noundef i64 @_ZNKSt7__cxx1112basic_stringIcSt11char_traitsIcESaIcEE4sizeEv(ptr noundef nonnull align 8 dereferenceable(32) %a) #26
  %call.i.i1.i = tail call noundef ptr @_ZNKSt7__cxx1112basic_stringIcSt11char_traitsIcESaIcEE4dataEv(ptr noundef nonnull align 8 dereferenceable(32) %b) #26
  %call2.i.i2.i = tail call noundef i64 @_ZNKSt7__cxx1112basic_stringIcSt11char_traitsIcESaIcEE4sizeEv(ptr noundef nonnull align 8 dereferenceable(32) %b) #26
  call void @llvm.lifetime.start.p0(i64 16, ptr nonnull %ref.tmp.i.i)
  call void @llvm.lifetime.start.p0(i64 16, ptr nonnull %ref.tmp1.i.i)
  %sub.i.i.i = add i64 %call2.i.i.i, -8
  store ptr %call.i.i.i, ptr %ref.tmp.i.i, align 8
  %0 = getelementptr inbounds i8, ptr %ref.tmp.i.i, i64 8
  store i64 %sub.i.i.i, ptr %0, align 8
  %sub.i6.i.i = add i64 %call2.i.i2.i, -8
  store ptr %call.i.i1.i, ptr %ref.tmp1.i.i, align 8
  %1 = getelementptr inbounds i8, ptr %ref.tmp1.i.i, i64 8
  store i64 %sub.i6.i.i, ptr %1, align 8
  %vtable.i.i.i = load ptr, ptr %user_cmp, align 8
  %vfn.i.i.i = getelementptr inbounds i8, ptr %vtable.i.i.i, i64 208
  %2 = load ptr, ptr %vfn.i.i.i, align 8
  %call.i.i5.i = call noundef i32 %2(ptr noundef nonnull align 8 dereferenceable(48) %user_cmp, ptr noundef nonnull align 8 dereferenceable(16) %ref.tmp.i.i, i1 noundef zeroext true, ptr noundef nonnull align 8 dereferenceable(16) %ref.tmp1.i.i, i1 noundef zeroext true)
  %cmp.not.i.i = icmp eq i32 %call.i.i5.i, 0
  br i1 %cmp.not.i.i, label %if.end.i.i, label %_ZN7rocksdb17sstableKeyCompareEPKNS_10ComparatorERKNS_11InternalKeyES5_.exit

if.end.i.i:                                       ; preds = %if.end
  %add.ptr.i.i.i = getelementptr inbounds i8, ptr %call.i.i.i, i64 %call2.i.i.i
  %add.ptr2.i.i.i = getelementptr inbounds i8, ptr %add.ptr.i.i.i, i64 -8
  %result.0.copyload.i.i.i.i = load i64, ptr %add.ptr2.i.i.i, align 1
  %add.ptr.i11.i.i = getelementptr inbounds i8, ptr %call.i.i1.i, i64 %call2.i.i2.i
  %add.ptr2.i12.i.i = getelementptr inbounds i8, ptr %add.ptr.i11.i.i, i64 -8
  %result.0.copyload.i.i13.i.i = load i64, ptr %add.ptr2.i12.i.i, align 1
  %.b = load i1, ptr @_ZN7rocksdbL23kRangeTombstoneSentinelE, align 8
  %3 = select i1 %.b, i64 -241, i64 0
  %cmp6.i.i = icmp eq i64 %result.0.copyload.i.i.i.i, %3
  br i1 %cmp6.i.i, label %if.then7.i.i, label %if.else.i.i

if.then7.i.i:                                     ; preds = %if.end.i.i
  %cmp8.not.i.i = icmp eq i64 %result.0.copyload.i.i13.i.i, %result.0.copyload.i.i.i.i
  br i1 %cmp8.not.i.i, label %if.end14.i.i, label %_ZN7rocksdb17sstableKeyCompareEPKNS_10ComparatorERKNS_11InternalKeyES5_.exit

if.else.i.i:                                      ; preds = %if.end.i.i
  %cmp11.i.i = icmp eq i64 %result.0.copyload.i.i13.i.i, %3
  br i1 %cmp11.i.i, label %_ZN7rocksdb17sstableKeyCompareEPKNS_10ComparatorERKNS_11InternalKeyES5_.exit, label %if.end14.i.i

if.end14.i.i:                                     ; preds = %if.else.i.i, %if.then7.i.i
  br label %_ZN7rocksdb17sstableKeyCompareEPKNS_10ComparatorERKNS_11InternalKeyES5_.exit

_ZN7rocksdb17sstableKeyCompareEPKNS_10ComparatorERKNS_11InternalKeyES5_.exit: ; preds = %if.end, %if.then7.i.i, %if.else.i.i, %if.end14.i.i
  %retval.0.i.i = phi i32 [ 0, %if.end14.i.i ], [ %call.i.i5.i, %if.end ], [ -1, %if.then7.i.i ], [ 1, %if.else.i.i ]
  call void @llvm.lifetime.end.p0(i64 16, ptr nonnull %ref.tmp.i.i)
  call void @llvm.lifetime.end.p0(i64 16, ptr nonnull %ref.tmp1.i.i)
  br label %return

return:                                           ; preds = %entry, %_ZN7rocksdb17sstableKeyCompareEPKNS_10ComparatorERKNS_11InternalKeyES5_.exit
  %retval.0 = phi i32 [ %retval.0.i.i, %_ZN7rocksdb17sstableKeyCompareEPKNS_10ComparatorERKNS_11InternalKeyES5_.exit ], [ -1, %entry ]
  ret i32 %retval.0
}